target datalayout = "e-m:e-p270:32:32-p271:32:32-p272:64:64-i64:64-i128:128-f80:128-n8:16:32:64-S128"
target triple = "x86_64-pc-linux-gnu"

@.str = private unnamed_addr constant [29 x i8] c"invalid FSM request size %zu\00", align 1
@.str.1 = private unnamed_addr constant [12 x i8] c"freespace.c\00", align 1
@__func__.fsm_space_needed_to_cat = private unnamed_addr constant [24 x i8] c"fsm_space_needed_to_cat\00", align 1

; Function Attrs: nounwind uwtable
define internal zeroext i8 @fsm_space_needed_to_cat(i64 noundef %0) #0 {
  %2 = alloca i8, align 1
  %3 = alloca i64, align 8
  %4 = alloca i32, align 4
  %5 = alloca i32, align 4
  store i64 %0, ptr %3, align 8
  call void @llvm.lifetime.start.p0(i64 4, ptr %4) #8
  %6 = load i64, ptr %3, align 8
  %7 = icmp ugt i64 %6, 8160
  br i1 %7, label %8, label %20

8:                                                ; preds = %1
  br label %9

9:                                                ; preds = %8
  br i1 true, label %10, label %12

10:                                               ; preds = %9
  %11 = call zeroext i1 @errstart_cold(i32 noundef 21, ptr noundef null) #9
  br i1 %11, label %14, label %17

12:                                               ; preds = %9
  %13 = call zeroext i1 @errstart(i32 noundef 21, ptr noundef null)
  br i1 %13, label %14, label %17

14:                                               ; preds = %12, %10
  %15 = load i64, ptr %3, align 8
  %16 = call i32 (ptr, ...) @errmsg_internal(ptr noundef @.str, i64 noundef %15)
  call void @errfinish(ptr noundef @.str.1, i32 noundef 438, ptr noundef @__func__.fsm_space_needed_to_cat)
  br label %17

17:                                               ; preds = %14, %12, %10
  unreachable

18:                                               ; No predecessors!
  br label %19

19:                                               ; preds = %18
  br label %20

20:                                               ; preds = %19, %1
  %21 = load i64, ptr %3, align 8
  %22 = icmp eq i64 %21, 0
  br i1 %22, label %23, label %24

23:                                               ; preds = %20
  store i8 1, ptr %2, align 1
  store i32 1, ptr %5, align 4
  br label %36

24:                                               ; preds = %20
  %25 = load i64, ptr %3, align 8
  %26 = add i64 %25, 32
  %27 = sub i64 %26, 1
  %28 = udiv i64 %27, 32
  %29 = trunc i64 %28 to i32
  store i32 %29, ptr %4, align 4
  %30 = load i32, ptr %4, align 4
  %31 = icmp sgt i32 %30, 255
  br i1 %31, label %32, label %33

32:                                               ; preds = %24
  store i32 255, ptr %4, align 4
  br label %33

33:                                               ; preds = %32, %24
  %34 = load i32, ptr %4, align 4
  %35 = trunc i32 %34 to i8
  store i8 %35, ptr %2, align 1
  store i32 1, ptr %5, align 4
  br label %36

36:                                               ; preds = %33, %23
  call void @llvm.lifetime.end.p0(i64 4, ptr %4) #8
  %37 = load i8, ptr %2, align 1
  ret i8 %37
}

; Function Attrs: nounwind uwtable
define dso_local i32 @GetPageWithFreeSpace(ptr noundef %0, i64 noundef %1) #0 {
  %3 = alloca ptr, align 8
  %4 = alloca i64, align 8
  %5 = alloca i8, align 1
  store ptr %0, ptr %3, align 8
  store i64 %1, ptr %4, align 8
  call void @llvm.lifetime.start.p0(i64 1, ptr %5) #8
  %6 = load i64, ptr %4, align 8
  %7 = call zeroext i8 @fsm_space_needed_to_cat(i64 noundef %6)
  store i8 %7, ptr %5, align 1
  %8 = load ptr, ptr %3, align 8
  %9 = load i8, ptr %5, align 1
  %10 = call i32 @fsm_search(ptr noundef %8, i8 noundef zeroext %9)
  call void @llvm.lifetime.end.p0(i64 1, ptr %5) #8
  ret i32 %10
}