; Function Attrs: nounwind uwtable
define dso_local i32 @GetPageWithFreeSpace(ptr noundef %0, i64 noundef %1) local_unnamed_addr #0 {
  %3 = icmp ugt i64 %1, 8160
  br i1 %3, label %4, label %fsm_space_needed_to_cat.exit

4:                                                ; preds = %2
  %5 = tail call zeroext i1 @errstart_cold(i32 noundef 21, ptr noundef null) #7
  tail call void @llvm.assume(i1 %5)
  %6 = tail call i32 (ptr, ...) @errmsg_internal(ptr noundef nonnull @.str, i64 noundef %1) #8
  tail call void @errfinish(ptr noundef nonnull @.str.1, i32 noundef 438, ptr noundef nonnull @__func__.fsm_space_needed_to_cat) #8
  unreachable

fsm_space_needed_to_cat.exit:                     ; preds = %2
  %7 = icmp eq i64 %1, 0
  %8 = add nuw nsw i64 %1, 31
  %9 = lshr i64 %8, 5
  %10 = trunc i64 %9 to i8
  %.0.i = select i1 %7, i8 1, i8 %10
  %11 = tail call fastcc i32 @fsm_search(ptr noundef %0, i8 noundef zeroext %.0.i)
  ret i32 %11
}